Certificate:
    Data:
        Version: 3 (0x2)
        Serial Number:
            12:0e:d0:8f:8a:f0:d5:44:bb:25:f0:22:d9:c5:de:fb
        Signature Algorithm: sha256WithRSAEncryption
        Issuer: CN=Easy-RSA CA
        Validity
            Not Before: Oct  1 21:58:02 2022 GMT
            Not After : Jan  3 21:58:02 2025 GMT
        Subject: CN=admin
        Subject Public Key Info:
            Public Key Algorithm: rsaEncryption
                RSA Public-Key: (2048 bit)
                Modulus:
                    00:b7:d2:e5:30:81:23:fb:ab:03:92:f5:cb:e9:ac:
                    51:65:97:20:83:d8:96:38:73:fd:14:b3:a0:b9:b2:
                    a6:23:8c:a4:c2:0e:c3:54:59:0e:a5:b5:02:c0:9b:
                    06:d5:fb:61:f8:25:4b:12:c6:3a:e2:18:ad:f0:37:
                    3e:ee:52:ec:de:31:da:1a:27:1f:4f:ed:8e:9f:b6:
                    cb:98:93:8b:3a:1e:b3:88:cf:a2:78:03:13:d8:9e:
                    d1:54:4e:d7:83:21:90:7e:1b:5c:c6:ce:3c:64:ec:
                    7d:96:8e:80:3a:db:36:14:26:f6:35:4f:6d:4e:cb:
                    20:c9:32:6a:56:ac:59:e1:bb:93:da:4d:ac:1e:ff:
                    bb:5d:4e:85:34:b7:64:bd:38:35:fd:03:c7:31:3e:
                    fd:40:fb:cb:d0:2b:f1:7f:37:72:3d:4e:53:26:1a:
                    b0:b5:71:ad:ef:95:17:3e:3d:05:fd:29:bf:a4:46:
                    3d:78:c9:12:1b:1d:56:d5:93:7f:d0:a3:70:13:a1:
                    b6:79:58:26:f8:10:42:01:7b:7f:b5:2f:70:bc:df:
                    87:04:7d:60:75:84:e4:5f:18:e6:18:47:a1:40:c1:
                    8c:af:57:8a:c0:75:4f:5a:f7:63:f6:dc:df:41:ad:
                    c9:36:0b:48:eb:3f:e6:e6:89:e3:3d:cb:ae:d7:bc:
                    14:57
                Exponent: 65537 (0x10001)
        X509v3 extensions:
            X509v3 Basic Constraints: 
                CA:FALSE
            X509v3 Subject Key Identifier: 
                7F:D9:25:B0:5F:A3:A4:A9:F9:67:DB:22:C5:AD:BE:16:75:73:C6:D6
            X509v3 Authority Key Identifier: 
                keyid:D8:17:20:67:A7:CC:97:8D:C6:FF:F4:54:82:BF:01:FD:B0:55:EC:CE
                DirName:/CN=Easy-RSA CA
                serial:6B:A4:4B:8F:38:00:8B:89:F1:30:51:02:67:DA:BE:C2:E3:EA:BC:D1

            X509v3 Extended Key Usage: 
                TLS Web Client Authentication
            X509v3 Key Usage: 
                Digital Signature
    Signature Algorithm: sha256WithRSAEncryption
         5e:11:8b:8c:3b:64:5b:ae:19:7f:9b:14:07:0e:d7:3e:84:ba:
         1e:16:51:3a:ad:a3:9c:8f:83:46:9a:4b:0e:fb:1e:e2:48:7a:
         14:ce:8c:ac:7f:d2:0c:58:78:8b:54:dd:90:5b:82:d1:56:ed:
         4d:d0:c4:c7:22:34:89:57:08:6f:59:8c:10:bb:6f:76:a8:97:
         0d:1c:4b:ff:7e:f0:6b:07:f8:7a:9a:40:eb:b0:87:3a:66:5d:
         49:74:c0:28:77:e1:3b:f3:fd:73:76:87:c0:75:53:a4:fe:a9:
         2c:a5:24:cc:c6:3b:8f:78:64:dc:55:01:2c:27:8d:be:3c:6f:
         63:08:21:e7:92:0f:ce:44:73:fa:60:ec:cb:fb:a4:d0:d1:fe:
         50:9b:6a:6e:79:93:62:65:0e:00:de:d9:2d:d0:c1:6b:d8:42:
         df:24:8b:d8:02:5c:1d:c1:1b:7d:7b:87:39:eb:f1:33:29:e4:
         68:b0:a7:39:01:74:16:d9:85:44:ea:2f:e4:b2:2d:9b:57:cd:
         83:98:f9:6f:6f:78:57:9a:16:02:79:a6:0b:6e:d7:00:f4:50:
         0f:0a:e9:8c:f6:53:f5:7e:29:12:48:bf:3a:4a:b0:6a:6a:8f:
         3d:24:90:89:a3:66:dc:20:51:ce:bb:53:a9:99:9d:b2:84:4f:
         75:82:88:50
-----BEGIN CERTIFICATE-----
MIIDUzCCAjugAwIBAgIQEg7Qj4rw1US7JfAi2cXe+zANBgkqhkiG9w0BAQsFADAW
MRQwEgYDVQQDDAtFYXN5LVJTQSBDQTAeFw0yMjEwMDEyMTU4MDJaFw0yNTAxMDMy
MTU4MDJaMBAxDjAMBgNVBAMMBWFkbWluMIIBIjANBgkqhkiG9w0BAQEFAAOCAQ8A
MIIBCgKCAQEAt9LlMIEj+6sDkvXL6axRZZcgg9iWOHP9FLOgubKmI4ykwg7DVFkO
pbUCwJsG1fth+CVLEsY64hit8Dc+7lLs3jHaGicfT+2On7bLmJOLOh6ziM+ieAMT
2J7RVE7XgyGQfhtcxs48ZOx9lo6AOts2FCb2NU9tTssgyTJqVqxZ4buT2k2sHv+7
XU6FNLdkvTg1/QPHMT79QPvL0CvxfzdyPU5TJhqwtXGt75UXPj0F/Sm/pEY9eMkS
Gx1W1ZN/0KNwE6G2eVgm+BBCAXt/tS9wvN+HBH1gdYTkXxjmGEehQMGMr1eKwHVP
Wvdj9tzfQa3JNgtI6z/m5onjPcuu17wUVwIDAQABo4GiMIGfMAkGA1UdEwQCMAAw
HQYDVR0OBBYEFH/ZJbBfo6Sp+WfbIsWtvhZ1c8bWMFEGA1UdIwRKMEiAFNgXIGen
zJeNxv/0VIK/Af2wVezOoRqkGDAWMRQwEgYDVQQDDAtFYXN5LVJTQSBDQYIUa6RL
jzgAi4nxMFECZ9q+wuPqvNEwEwYDVR0lBAwwCgYIKwYBBQUHAwIwCwYDVR0PBAQD
AgeAMA0GCSqGSIb3DQEBCwUAA4IBAQBeEYuMO2Rbrhl/mxQHDtc+hLoeFlE6raOc
j4NGmksO+x7iSHoUzoysf9IMWHiLVN2QW4LRVu1N0MTHIjSJVwhvWYwQu292qJcN
HEv/fvBrB/h6mkDrsIc6Zl1JdMAod+E78/1zdofAdVOk/qkspSTMxjuPeGTcVQEs
J42+PG9jCCHnkg/ORHP6YOzL+6TQ0f5Qm2pueZNiZQ4A3tkt0MFr2ELfJIvYAlwd
wRt9e4c56/EzKeRosKc5AXQW2YVE6i/ksi2bV82DmPlvb3hXmhYCeaYLbtcA9FAP
CumM9lP1fikSSL86SrBqao89JJCJo2bcIFHOu1OpmZ2yhE91gohQ
-----END CERTIFICATE-----
