Certificate:
    Data:
        Version: 3 (0x2)
        Serial Number:
            79:1d:70:ab:62:9f:09:ad:63:fa:c7:e9:de:39:32:b4
        Signature Algorithm: sha256WithRSAEncryption
        Issuer: CN=Easy-RSA CA
        Validity
            Not Before: Oct  7 23:34:21 2022 GMT
            Not After : Jan  9 23:34:21 2025 GMT
        Subject: CN=test
        Subject Public Key Info:
            Public Key Algorithm: rsaEncryption
                RSA Public-Key: (2048 bit)
                Modulus:
                    00:a7:0b:a6:5c:b3:8b:bb:2e:a1:6b:83:56:52:cc:
                    ea:2f:85:16:1a:21:2c:88:1b:80:89:ca:9a:c6:de:
                    d5:01:89:b8:e8:90:ef:d7:7f:74:f6:1c:9d:d8:b3:
                    f7:8f:58:f0:87:81:66:a7:ab:a9:f2:f5:95:06:36:
                    b3:13:4e:c1:ae:52:ec:28:2f:d2:87:d0:ee:60:53:
                    42:48:38:9a:01:9a:63:98:02:22:b6:2b:50:18:a8:
                    40:c9:af:42:b0:c5:07:c8:45:da:f6:b6:9e:32:be:
                    4a:a3:6b:67:93:e0:a7:55:ab:2b:10:60:65:b2:70:
                    ba:99:ab:32:59:c4:d0:c9:42:3c:de:7c:23:6f:9b:
                    b8:7b:d6:a1:a2:fa:7a:cb:e4:a3:38:ed:ea:91:54:
                    df:21:a9:73:3d:28:03:6a:c1:79:94:5b:3e:cb:3b:
                    61:67:25:a5:24:89:10:6b:83:e8:a0:7f:16:00:a0:
                    30:da:fb:e4:e3:69:9d:a7:dc:07:a8:e1:30:b6:ea:
                    3b:2e:4f:6b:c0:98:67:26:22:61:fe:6a:6a:52:ea:
                    ff:fc:e7:82:d3:0b:b7:52:4c:28:e0:de:e3:b4:9c:
                    f1:f8:3d:ec:ec:01:fa:6d:8b:78:22:9b:6e:72:f2:
                    e3:9c:6e:bf:e4:a4:5e:4b:d9:cc:ee:6c:73:a8:6e:
                    53:61
                Exponent: 65537 (0x10001)
        X509v3 extensions:
            X509v3 Basic Constraints: 
                CA:FALSE
            X509v3 Subject Key Identifier: 
                EE:BB:CC:91:A5:3E:23:52:F6:92:B1:09:AD:93:6A:CD:A7:64:15:13
            X509v3 Authority Key Identifier: 
                keyid:D8:17:20:67:A7:CC:97:8D:C6:FF:F4:54:82:BF:01:FD:B0:55:EC:CE
                DirName:/CN=Easy-RSA CA
                serial:6B:A4:4B:8F:38:00:8B:89:F1:30:51:02:67:DA:BE:C2:E3:EA:BC:D1

            X509v3 Extended Key Usage: 
                TLS Web Client Authentication
            X509v3 Key Usage: 
                Digital Signature
    Signature Algorithm: sha256WithRSAEncryption
         3c:cc:3d:dd:ca:89:26:74:38:57:d2:78:2d:20:5f:6e:8b:ef:
         2d:86:91:8c:57:60:72:38:5f:67:e6:65:79:ea:69:fb:fc:03:
         be:f8:18:f1:a2:55:c6:73:99:b2:2f:fd:7c:6e:45:d4:c6:33:
         c7:0b:06:6c:b7:32:45:78:11:e4:49:03:2e:e7:fe:a7:f3:9f:
         3c:47:3c:95:8e:36:fa:35:0e:e7:1a:36:b8:a5:ab:15:5a:76:
         f3:ec:68:bb:1c:6d:05:06:50:3c:d5:36:92:67:61:0d:53:51:
         5b:d1:73:dc:b5:f1:65:11:74:e9:a1:e6:09:af:14:de:76:d1:
         40:1f:63:01:77:7e:a7:8e:e6:df:bf:01:99:92:66:43:12:0f:
         0d:b3:1f:4a:38:d1:68:d2:d4:e7:80:9c:f0:e0:84:04:2e:bc:
         25:0c:14:24:a7:ab:c9:43:37:6e:a5:9d:66:55:5b:25:8f:eb:
         41:b1:9e:d8:2c:50:48:77:1c:13:31:40:64:45:a9:bc:43:31:
         e6:9f:36:72:9f:79:4b:53:0a:7f:6e:27:0f:2d:15:76:66:fa:
         99:e4:b4:c8:bd:93:0a:ed:c4:79:8c:5e:72:c1:07:31:da:2d:
         d5:a0:c9:c2:60:d7:13:ce:d0:19:ca:95:fa:f6:b3:4f:7b:39:
         d3:0d:66:b3
-----BEGIN CERTIFICATE-----
MIIDUjCCAjqgAwIBAgIQeR1wq2KfCa1j+sfp3jkytDANBgkqhkiG9w0BAQsFADAW
MRQwEgYDVQQDDAtFYXN5LVJTQSBDQTAeFw0yMjEwMDcyMzM0MjFaFw0yNTAxMDky
MzM0MjFaMA8xDTALBgNVBAMMBHRlc3QwggEiMA0GCSqGSIb3DQEBAQUAA4IBDwAw
ggEKAoIBAQCnC6Zcs4u7LqFrg1ZSzOovhRYaISyIG4CJyprG3tUBibjokO/Xf3T2
HJ3Ys/ePWPCHgWanq6ny9ZUGNrMTTsGuUuwoL9KH0O5gU0JIOJoBmmOYAiK2K1AY
qEDJr0KwxQfIRdr2tp4yvkqja2eT4KdVqysQYGWycLqZqzJZxNDJQjzefCNvm7h7
1qGi+nrL5KM47eqRVN8hqXM9KANqwXmUWz7LO2FnJaUkiRBrg+igfxYAoDDa++Tj
aZ2n3Aeo4TC26jsuT2vAmGcmImH+ampS6v/854LTC7dSTCjg3uO0nPH4PezsAfpt
i3gim25y8uOcbr/kpF5L2czubHOoblNhAgMBAAGjgaIwgZ8wCQYDVR0TBAIwADAd
BgNVHQ4EFgQU7rvMkaU+I1L2krEJrZNqzadkFRMwUQYDVR0jBEowSIAU2BcgZ6fM
l43G//RUgr8B/bBV7M6hGqQYMBYxFDASBgNVBAMMC0Vhc3ktUlNBIENBghRrpEuP
OACLifEwUQJn2r7C4+q80TATBgNVHSUEDDAKBggrBgEFBQcDAjALBgNVHQ8EBAMC
B4AwDQYJKoZIhvcNAQELBQADggEBADzMPd3KiSZ0OFfSeC0gX26L7y2GkYxXYHI4
X2fmZXnqafv8A774GPGiVcZzmbIv/XxuRdTGM8cLBmy3MkV4EeRJAy7n/qfznzxH
PJWONvo1DucaNrilqxVadvPsaLscbQUGUDzVNpJnYQ1TUVvRc9y18WURdOmh5gmv
FN520UAfYwF3fqeO5t+/AZmSZkMSDw2zH0o40WjS1OeAnPDghAQuvCUMFCSnq8lD
N26lnWZVWyWP60GxntgsUEh3HBMxQGRFqbxDMeafNnKfeUtTCn9uJw8tFXZm+pnk
tMi9kwrtxHmMXnLBBzHaLdWgycJg1xPO0BnKlfr2s097OdMNZrM=
-----END CERTIFICATE-----
