Certificate:
    Data:
        Version: 3 (0x2)
        Serial Number:
            0a:1c:2d:ec:c5:f7:a1:bb:17:56:57:d0:da:6b:05:1d
        Signature Algorithm: sha256WithRSAEncryption
        Issuer: CN=Easy-RSA CA
        Validity
            Not Before: Oct 10 00:25:53 2022 GMT
            Not After : Jan 12 00:25:53 2025 GMT
        Subject: CN=alcu5535
        Subject Public Key Info:
            Public Key Algorithm: rsaEncryption
                RSA Public-Key: (2048 bit)
                Modulus:
                    00:a1:a0:09:9a:50:8a:e6:cb:fa:24:5a:1f:ca:10:
                    1f:44:a3:a7:58:c0:02:e7:3e:74:cb:81:13:42:a2:
                    5c:97:d0:0d:e9:8e:33:8f:1e:c2:c5:fe:03:8d:55:
                    68:8f:49:9a:23:93:93:66:fa:57:a0:66:46:c8:20:
                    06:67:17:0e:ff:19:e1:1f:a1:c5:97:b9:67:28:f6:
                    bf:ee:9b:cf:c4:10:16:7f:d5:1b:d2:44:b5:6c:92:
                    97:34:a3:33:cb:5b:cf:1a:17:6e:20:2a:51:7f:e0:
                    8e:ed:ab:1c:ee:f8:67:44:21:a4:4a:f7:60:41:0a:
                    96:cd:7d:04:bc:90:da:8c:53:a9:5f:f0:44:aa:56:
                    45:db:e4:d5:d2:2b:ba:36:3c:cc:f7:a6:69:b1:c2:
                    52:8a:93:b7:30:21:f9:e1:29:e4:bb:14:13:cb:01:
                    83:fd:cf:8a:d2:f7:cb:d9:d6:ab:c3:8e:0e:bd:7b:
                    38:52:9c:34:62:df:d4:b9:cd:e1:7e:d6:21:7b:da:
                    01:80:b5:b7:a0:4a:8f:34:ac:b7:5f:ea:5c:28:70:
                    3f:69:68:0c:37:c1:44:5c:5a:c9:08:1e:63:03:29:
                    6c:e8:c2:19:0a:9a:49:d4:b7:4a:af:8f:46:d3:d3:
                    0a:1d:f7:c9:2a:10:03:b2:f2:37:34:8f:ab:03:2d:
                    f5:25
                Exponent: 65537 (0x10001)
        X509v3 extensions:
            X509v3 Basic Constraints: 
                CA:FALSE
            X509v3 Subject Key Identifier: 
                46:F9:13:13:BD:37:61:40:34:8D:05:C5:D9:83:0D:FB:C6:A1:4A:E3
            X509v3 Authority Key Identifier: 
                keyid:D8:17:20:67:A7:CC:97:8D:C6:FF:F4:54:82:BF:01:FD:B0:55:EC:CE
                DirName:/CN=Easy-RSA CA
                serial:6B:A4:4B:8F:38:00:8B:89:F1:30:51:02:67:DA:BE:C2:E3:EA:BC:D1

            X509v3 Extended Key Usage: 
                TLS Web Client Authentication
            X509v3 Key Usage: 
                Digital Signature
    Signature Algorithm: sha256WithRSAEncryption
         0f:14:48:00:c6:d8:e8:18:bb:a2:2d:de:b3:2c:19:1f:da:62:
         16:58:8b:d4:d2:19:05:be:5b:13:13:7e:d3:e1:a2:4b:28:83:
         59:77:30:f8:71:9d:d5:51:6c:51:eb:3a:61:04:ff:14:aa:62:
         8f:61:8a:24:fc:eb:cc:60:52:35:1c:6e:29:00:a0:45:1e:b8:
         ff:71:7e:17:eb:6e:a8:ae:e2:2b:54:51:d0:b7:4d:80:7e:26:
         8c:f1:64:d8:0f:2a:a1:a0:b4:dc:dc:06:88:e3:9c:12:22:cd:
         03:bf:63:aa:a5:e6:a4:97:b6:37:9c:42:4d:f0:75:1a:37:06:
         fa:9d:b5:51:b5:1d:e6:ed:c1:8c:c4:32:10:2b:1d:11:47:0c:
         f5:14:d1:69:6e:96:87:39:97:6b:a6:8e:b7:4d:c5:fe:70:0a:
         eb:3b:07:6f:53:2b:ba:37:ca:7e:65:f7:0c:b5:9e:0f:45:0a:
         e7:40:9f:96:c3:8c:38:19:f7:1c:69:ed:b9:63:5f:6f:cc:89:
         5b:71:40:dc:0a:f5:e5:ae:1e:42:12:3e:c1:c1:73:ce:af:6b:
         13:6d:a2:db:2a:57:cc:81:8d:6a:03:83:e6:fa:4d:67:5b:c9:
         5c:be:cb:3b:31:2b:73:44:2d:dd:48:28:59:5a:d1:ed:44:6a:
         5c:4b:d0:c8
-----BEGIN CERTIFICATE-----
MIIDVjCCAj6gAwIBAgIQChwt7MX3obsXVlfQ2msFHTANBgkqhkiG9w0BAQsFADAW
MRQwEgYDVQQDDAtFYXN5LVJTQSBDQTAeFw0yMjEwMTAwMDI1NTNaFw0yNTAxMTIw
MDI1NTNaMBMxETAPBgNVBAMMCGFsY3U1NTM1MIIBIjANBgkqhkiG9w0BAQEFAAOC
AQ8AMIIBCgKCAQEAoaAJmlCK5sv6JFofyhAfRKOnWMAC5z50y4ETQqJcl9AN6Y4z
jx7Cxf4DjVVoj0maI5OTZvpXoGZGyCAGZxcO/xnhH6HFl7lnKPa/7pvPxBAWf9Ub
0kS1bJKXNKMzy1vPGhduICpRf+CO7asc7vhnRCGkSvdgQQqWzX0EvJDajFOpX/BE
qlZF2+TV0iu6NjzM96ZpscJSipO3MCH54SnkuxQTywGD/c+K0vfL2darw44OvXs4
Upw0Yt/Uuc3hftYhe9oBgLW3oEqPNKy3X+pcKHA/aWgMN8FEXFrJCB5jAyls6MIZ
CppJ1LdKr49G09MKHffJKhADsvI3NI+rAy31JQIDAQABo4GiMIGfMAkGA1UdEwQC
MAAwHQYDVR0OBBYEFEb5ExO9N2FANI0FxdmDDfvGoUrjMFEGA1UdIwRKMEiAFNgX
IGenzJeNxv/0VIK/Af2wVezOoRqkGDAWMRQwEgYDVQQDDAtFYXN5LVJTQSBDQYIU
a6RLjzgAi4nxMFECZ9q+wuPqvNEwEwYDVR0lBAwwCgYIKwYBBQUHAwIwCwYDVR0P
BAQDAgeAMA0GCSqGSIb3DQEBCwUAA4IBAQAPFEgAxtjoGLuiLd6zLBkf2mIWWIvU
0hkFvlsTE37T4aJLKINZdzD4cZ3VUWxR6zphBP8UqmKPYYok/OvMYFI1HG4pAKBF
Hrj/cX4X626oruIrVFHQt02AfiaM8WTYDyqhoLTc3AaI45wSIs0Dv2Oqpeakl7Y3
nEJN8HUaNwb6nbVRtR3m7cGMxDIQKx0RRwz1FNFpbpaHOZdrpo63TcX+cArrOwdv
Uyu6N8p+ZfcMtZ4PRQrnQJ+Ww4w4Gfccae25Y19vzIlbcUDcCvXlrh5CEj7BwXPO
r2sTbaLbKlfMgY1qA4Pm+k1nW8lcvss7MStzRC3dSChZWtHtRGpcS9DI
-----END CERTIFICATE-----
