Certificate:
    Data:
        Version: 3 (0x2)
        Serial Number:
            9e:fc:2a:0c:f2:8c:f0:72:74:4e:6b:5e:96:b7:2a:a5
        Signature Algorithm: sha256WithRSAEncryption
        Issuer: CN=Easy-RSA CA
        Validity
            Not Before: Oct  1 21:54:52 2022 GMT
            Not After : Jan  3 21:54:52 2025 GMT
        Subject: CN=final.csci3403.com
        Subject Public Key Info:
            Public Key Algorithm: rsaEncryption
                RSA Public-Key: (2048 bit)
                Modulus:
                    00:de:dc:14:2c:e1:13:03:7b:3b:6e:1f:6a:5d:20:
                    24:56:41:63:e0:6b:97:9a:9b:71:51:ed:df:9a:9b:
                    75:7b:5a:37:44:d3:3b:f3:3a:a8:b0:31:d2:16:ea:
                    b6:a5:98:5c:18:92:5c:64:46:cb:e1:9e:d1:09:4b:
                    5e:f4:04:26:40:78:b2:2b:7f:4c:0a:44:56:79:da:
                    a6:13:0e:76:6c:b9:6f:ac:47:0d:86:41:fd:8d:39:
                    81:76:96:af:c1:14:f4:bd:19:b5:45:81:65:e9:9b:
                    a2:71:ca:a4:e0:1e:05:77:68:61:93:5e:42:68:e4:
                    17:91:dd:91:a5:de:16:79:43:6e:43:3f:29:3e:53:
                    72:8d:5d:16:d1:6a:46:44:98:d4:ea:5d:b5:e2:7c:
                    b7:b2:76:b6:f9:be:13:fb:04:7c:00:9b:aa:6d:fe:
                    32:28:1e:12:6e:35:ad:2f:46:fa:3c:dc:79:6c:cd:
                    d3:5f:54:28:49:0d:79:17:f5:78:eb:8b:bc:c4:8e:
                    ff:93:dc:d5:46:af:0b:cd:e9:2e:b2:4a:dd:63:cb:
                    24:17:43:4d:9c:aa:1e:c0:91:38:a6:1e:00:de:36:
                    69:c1:22:31:0a:6a:e9:5d:e7:5c:2b:e3:2e:0b:94:
                    8b:86:33:7d:74:da:ef:25:79:aa:b2:f8:ad:5b:e1:
                    d9:fd
                Exponent: 65537 (0x10001)
        X509v3 extensions:
            X509v3 Basic Constraints: 
                CA:FALSE
            X509v3 Subject Key Identifier: 
                0C:E1:9C:D4:35:18:ED:B0:A1:8B:ED:E1:2B:68:45:D2:98:21:13:26
            X509v3 Authority Key Identifier: 
                keyid:D8:17:20:67:A7:CC:97:8D:C6:FF:F4:54:82:BF:01:FD:B0:55:EC:CE
                DirName:/CN=Easy-RSA CA
                serial:6B:A4:4B:8F:38:00:8B:89:F1:30:51:02:67:DA:BE:C2:E3:EA:BC:D1

            X509v3 Extended Key Usage: 
                TLS Web Server Authentication
            X509v3 Key Usage: 
                Digital Signature, Key Encipherment
            X509v3 Subject Alternative Name: 
                DNS:final.csci3403.com
    Signature Algorithm: sha256WithRSAEncryption
         28:e9:b4:e2:5e:6f:a8:29:ac:8b:64:a9:72:66:d2:68:f8:51:
         ea:c1:19:99:06:71:da:7e:0e:9a:e4:33:3c:03:b4:af:96:ac:
         6c:1c:15:d2:3e:37:c0:a2:7c:c4:13:3f:dc:8e:a6:f2:ed:e1:
         dd:ac:a9:62:ff:20:ed:d7:de:54:c3:79:59:f0:a6:40:11:a1:
         e5:2f:d7:76:6f:a6:56:de:00:c0:07:c2:5c:08:15:52:7f:1b:
         09:cb:44:48:01:75:dd:d6:ad:8a:c0:af:d6:88:5d:12:39:3c:
         29:22:56:47:9e:6e:b4:f9:3e:b2:0d:ca:02:60:47:de:58:4d:
         46:a2:72:68:e0:f5:58:c3:83:0d:f4:56:d8:d1:4b:ed:45:aa:
         b0:e7:5d:66:cd:ba:61:d4:7c:98:e0:68:13:42:e7:0f:5b:fb:
         45:71:cd:56:ff:7c:b4:a8:3e:eb:04:2f:02:c7:e4:10:5a:07:
         89:14:df:84:fb:4d:8c:2f:4b:ad:7e:e2:2a:49:cd:2d:11:df:
         1f:6b:f4:27:d7:57:a7:6f:c7:2b:a9:90:f3:45:98:01:7c:01:
         2c:52:6e:55:61:6f:23:88:62:41:e8:b4:29:2c:7b:60:a8:b9:
         3c:59:15:49:55:e3:c8:12:7f:77:92:56:ea:00:a7:bc:d6:a0:
         47:57:39:5d
-----BEGIN CERTIFICATE-----
MIIDgDCCAmigAwIBAgIRAJ78KgzyjPBydE5rXpa3KqUwDQYJKoZIhvcNAQELBQAw
FjEUMBIGA1UEAwwLRWFzeS1SU0EgQ0EwHhcNMjIxMDAxMjE1NDUyWhcNMjUwMTAz
MjE1NDUyWjAdMRswGQYDVQQDDBJmaW5hbC5jc2NpMzQwMy5jb20wggEiMA0GCSqG
SIb3DQEBAQUAA4IBDwAwggEKAoIBAQDe3BQs4RMDeztuH2pdICRWQWPga5eam3FR
7d+am3V7WjdE0zvzOqiwMdIW6ralmFwYklxkRsvhntEJS170BCZAeLIrf0wKRFZ5
2qYTDnZsuW+sRw2GQf2NOYF2lq/BFPS9GbVFgWXpm6JxyqTgHgV3aGGTXkJo5BeR
3ZGl3hZ5Q25DPyk+U3KNXRbRakZEmNTqXbXifLeydrb5vhP7BHwAm6pt/jIoHhJu
Na0vRvo83HlszdNfVChJDXkX9Xjri7zEjv+T3NVGrwvN6S6ySt1jyyQXQ02cqh7A
kTimHgDeNmnBIjEKauld51wr4y4LlIuGM3102u8leaqy+K1b4dn9AgMBAAGjgcEw
gb4wCQYDVR0TBAIwADAdBgNVHQ4EFgQUDOGc1DUY7bChi+3hK2hF0pghEyYwUQYD
VR0jBEowSIAU2BcgZ6fMl43G//RUgr8B/bBV7M6hGqQYMBYxFDASBgNVBAMMC0Vh
c3ktUlNBIENBghRrpEuPOACLifEwUQJn2r7C4+q80TATBgNVHSUEDDAKBggrBgEF
BQcDATALBgNVHQ8EBAMCBaAwHQYDVR0RBBYwFIISZmluYWwuY3NjaTM0MDMuY29t
MA0GCSqGSIb3DQEBCwUAA4IBAQAo6bTiXm+oKayLZKlyZtJo+FHqwRmZBnHafg6a
5DM8A7SvlqxsHBXSPjfAonzEEz/cjqby7eHdrKli/yDt195Uw3lZ8KZAEaHlL9d2
b6ZW3gDAB8JcCBVSfxsJy0RIAXXd1q2KwK/WiF0SOTwpIlZHnm60+T6yDcoCYEfe
WE1GonJo4PVYw4MN9FbY0UvtRaqw511mzbph1HyY4GgTQucPW/tFcc1W/3y0qD7r
BC8Cx+QQWgeJFN+E+02ML0utfuIqSc0tEd8fa/Qn11enb8crqZDzRZgBfAEsUm5V
YW8jiGJB6LQpLHtgqLk8WRVJVePIEn93klbqAKe81qBHVzld
-----END CERTIFICATE-----
