Certificate:
    Data:
        Version: 3 (0x2)
        Serial Number:
            a3:46:15:1d:0e:3a:39:92:35:29:5d:18:80:42:5b:62
        Signature Algorithm: sha256WithRSAEncryption
        Issuer: CN=Easy-RSA CA
        Validity
            Not Before: Oct  1 22:00:47 2022 GMT
            Not After : Jan  3 22:00:47 2025 GMT
        Subject: CN=admin
        Subject Public Key Info:
            Public Key Algorithm: rsaEncryption
                RSA Public-Key: (2048 bit)
                Modulus:
                    00:c3:a9:44:ec:71:dd:a1:17:3b:74:e5:3d:69:05:
                    40:74:a5:d6:f5:30:54:31:c7:44:f1:41:28:8c:c9:
                    0d:f6:aa:59:51:be:e2:ab:87:eb:04:f7:88:7c:16:
                    b6:85:76:12:16:4a:1a:96:36:37:4d:e3:77:98:1d:
                    b0:e1:db:4e:5e:ef:0e:90:e6:1c:ee:5f:e4:91:72:
                    94:33:ce:7d:5f:1b:b6:6a:aa:ce:df:ce:9e:5c:fd:
                    c9:3c:7b:35:5b:6e:61:fb:e7:b9:c8:be:a1:08:7f:
                    0f:4e:87:7f:37:1f:0a:8b:35:b2:5e:e8:23:b4:49:
                    cc:24:aa:c6:ae:0a:42:b9:91:56:36:d7:96:f0:25:
                    bd:76:5f:34:8d:15:fc:bf:e2:e8:b4:7c:cd:d5:f2:
                    6b:c0:b8:de:84:98:49:d6:38:02:ce:de:e0:b0:84:
                    55:87:7c:aa:13:c2:09:aa:1b:d9:2b:e7:a4:af:b7:
                    a3:b6:f2:a6:42:c9:4e:c1:b1:3a:f0:01:2d:31:4d:
                    43:df:7c:c1:70:e0:b0:28:3a:b0:ad:ed:9c:be:59:
                    7f:0d:ff:4b:7a:cb:4e:1f:e8:df:34:4c:88:01:ca:
                    43:96:54:ae:8a:ad:70:f6:ca:46:bd:04:05:40:8b:
                    84:0f:8c:66:3e:07:10:06:59:e0:e2:75:dc:0e:60:
                    f4:4f
                Exponent: 65537 (0x10001)
        X509v3 extensions:
            X509v3 Basic Constraints: 
                CA:FALSE
            X509v3 Subject Key Identifier: 
                14:89:E5:03:28:42:D1:EE:EA:7F:08:3D:5B:FC:BC:04:BC:87:B0:60
            X509v3 Authority Key Identifier: 
                keyid:D8:17:20:67:A7:CC:97:8D:C6:FF:F4:54:82:BF:01:FD:B0:55:EC:CE
                DirName:/CN=Easy-RSA CA
                serial:6B:A4:4B:8F:38:00:8B:89:F1:30:51:02:67:DA:BE:C2:E3:EA:BC:D1

            X509v3 Extended Key Usage: 
                TLS Web Client Authentication
            X509v3 Key Usage: 
                Digital Signature
    Signature Algorithm: sha256WithRSAEncryption
         a7:48:a1:26:c9:83:08:c7:08:28:04:f7:0d:18:91:f1:6a:7c:
         b2:05:73:13:31:79:0a:f1:b1:f9:f4:51:a7:04:b8:27:b2:10:
         74:c3:a4:d7:20:74:f0:3a:6a:0e:8a:d8:6d:8f:bb:75:b5:7c:
         d2:92:4c:50:2b:58:a2:39:a3:0b:b0:c3:e3:83:50:01:0f:cd:
         87:2e:e1:f8:bc:4e:7c:14:d7:71:74:b1:c3:8b:eb:f2:0e:42:
         7f:3c:bc:34:e7:7d:bf:77:56:06:5e:cf:85:37:e5:d8:d2:b7:
         25:75:c3:0c:d6:b1:7c:e9:da:4f:1f:af:c1:3e:6c:3f:8a:e1:
         a7:a9:aa:fb:58:7f:33:5a:f6:12:54:21:2d:cd:57:2b:03:17:
         1a:28:e1:ce:6c:8e:84:af:b8:d5:42:12:12:db:14:f3:15:c9:
         20:58:59:04:68:56:65:fe:a8:8d:aa:10:ba:7f:b2:38:fe:12:
         dd:86:80:94:86:99:9e:e6:bc:bf:79:11:e3:ed:85:bc:d8:2d:
         70:3d:06:89:6e:e7:49:74:ca:08:ad:cc:1a:d0:d7:2c:38:8c:
         40:89:9c:f6:37:76:04:24:5c:6e:bc:6c:8d:22:77:74:8c:e8:
         dc:ac:81:da:94:10:b8:55:19:0e:98:6c:8b:11:f5:2a:75:b9:
         3f:06:7e:e7
-----BEGIN CERTIFICATE-----
MIIDVDCCAjygAwIBAgIRAKNGFR0OOjmSNSldGIBCW2IwDQYJKoZIhvcNAQELBQAw
FjEUMBIGA1UEAwwLRWFzeS1SU0EgQ0EwHhcNMjIxMDAxMjIwMDQ3WhcNMjUwMTAz
MjIwMDQ3WjAQMQ4wDAYDVQQDDAVhZG1pbjCCASIwDQYJKoZIhvcNAQEBBQADggEP
ADCCAQoCggEBAMOpROxx3aEXO3TlPWkFQHSl1vUwVDHHRPFBKIzJDfaqWVG+4quH
6wT3iHwWtoV2EhZKGpY2N03jd5gdsOHbTl7vDpDmHO5f5JFylDPOfV8btmqqzt/O
nlz9yTx7NVtuYfvnuci+oQh/D06HfzcfCos1sl7oI7RJzCSqxq4KQrmRVjbXlvAl
vXZfNI0V/L/i6LR8zdXya8C43oSYSdY4As7e4LCEVYd8qhPCCaob2SvnpK+3o7by
pkLJTsGxOvABLTFNQ998wXDgsCg6sK3tnL5Zfw3/S3rLTh/o3zRMiAHKQ5ZUroqt
cPbKRr0EBUCLhA+MZj4HEAZZ4OJ13A5g9E8CAwEAAaOBojCBnzAJBgNVHRMEAjAA
MB0GA1UdDgQWBBQUieUDKELR7up/CD1b/LwEvIewYDBRBgNVHSMESjBIgBTYFyBn
p8yXjcb/9FSCvwH9sFXszqEapBgwFjEUMBIGA1UEAwwLRWFzeS1SU0EgQ0GCFGuk
S484AIuJ8TBRAmfavsLj6rzRMBMGA1UdJQQMMAoGCCsGAQUFBwMCMAsGA1UdDwQE
AwIHgDANBgkqhkiG9w0BAQsFAAOCAQEAp0ihJsmDCMcIKAT3DRiR8Wp8sgVzEzF5
CvGx+fRRpwS4J7IQdMOk1yB08DpqDorYbY+7dbV80pJMUCtYojmjC7DD44NQAQ/N
hy7h+LxOfBTXcXSxw4vr8g5Cfzy8NOd9v3dWBl7PhTfl2NK3JXXDDNaxfOnaTx+v
wT5sP4rhp6mq+1h/M1r2ElQhLc1XKwMXGijhzmyOhK+41UISEtsU8xXJIFhZBGhW
Zf6ojaoQun+yOP4S3YaAlIaZnua8v3kR4+2FvNgtcD0GiW7nSXTKCK3MGtDXLDiM
QImc9jd2BCRcbrxsjSJ3dIzo3KyB2pQQuFUZDphsixH1KnW5PwZ+5w==
-----END CERTIFICATE-----
