Certificate:
    Data:
        Version: 3 (0x2)
        Serial Number:
            fc:1f:de:87:80:fb:0d:bc:e0:06:14:da:02:ca:f6:83
        Signature Algorithm: sha256WithRSAEncryption
        Issuer: CN=Easy-RSA CA
        Validity
            Not Before: Oct 10 02:21:30 2022 GMT
            Not After : Jan 12 02:21:30 2025 GMT
        Subject: CN=student
        Subject Public Key Info:
            Public Key Algorithm: rsaEncryption
                RSA Public-Key: (2048 bit)
                Modulus:
                    00:be:d3:a7:15:e6:70:9d:0c:ca:a3:ae:7b:07:b8:
                    be:a0:24:0a:b8:46:08:2a:de:a0:5d:88:c8:00:31:
                    72:e7:67:ae:ba:02:ea:f0:4e:c6:48:c0:33:71:4b:
                    d5:1e:d6:34:c6:80:dc:3f:8e:86:10:b8:92:51:07:
                    1d:22:a9:6a:dd:87:48:04:8d:cf:c3:cd:62:e4:11:
                    ad:41:7d:1e:fc:44:d2:6e:1a:10:c0:73:0d:8b:f3:
                    e0:dc:c3:90:64:9e:f9:d5:e7:e3:2b:52:0d:6d:30:
                    e3:93:7c:d4:1c:7b:cb:de:f0:e2:2c:cc:93:cb:37:
                    91:58:1d:da:fe:fd:bc:1b:94:aa:07:f8:15:45:12:
                    99:63:97:10:c8:2c:dd:31:a8:4f:44:31:16:b3:1e:
                    7f:5b:bb:74:91:6f:cd:79:85:5f:cd:85:f3:45:90:
                    be:e7:0d:80:ee:f8:ff:d1:38:0c:60:be:7f:00:6b:
                    88:72:fd:7a:76:88:45:22:af:60:aa:62:23:7c:20:
                    22:44:6f:fc:a6:43:c3:4a:12:06:f2:f9:f9:88:9a:
                    7e:ec:53:a2:70:8f:78:db:aa:f9:82:da:e2:f3:a9:
                    9d:c4:bd:c0:3c:72:65:2b:62:11:3c:f8:45:c4:b4:
                    c7:03:3e:2b:3f:6d:5a:a5:c0:47:fc:ed:70:b0:06:
                    9d:cf
                Exponent: 65537 (0x10001)
        X509v3 extensions:
            X509v3 Basic Constraints: 
                CA:FALSE
            X509v3 Subject Key Identifier: 
                4E:93:F5:83:23:FA:2C:CC:0A:E2:7C:BC:4D:52:EE:DE:AD:68:45:8A
            X509v3 Authority Key Identifier: 
                keyid:D8:17:20:67:A7:CC:97:8D:C6:FF:F4:54:82:BF:01:FD:B0:55:EC:CE
                DirName:/CN=Easy-RSA CA
                serial:6B:A4:4B:8F:38:00:8B:89:F1:30:51:02:67:DA:BE:C2:E3:EA:BC:D1

            X509v3 Extended Key Usage: 
                TLS Web Client Authentication
            X509v3 Key Usage: 
                Digital Signature
    Signature Algorithm: sha256WithRSAEncryption
         5e:58:9e:52:7a:cb:e7:97:fc:aa:d2:d1:7b:2e:c6:a6:fe:c1:
         1d:c2:4b:e0:5b:dc:6f:7e:25:a6:5b:8c:96:e0:50:ae:6e:5c:
         95:1f:20:3d:59:60:96:f5:75:6e:60:c1:39:9b:30:97:7d:a8:
         05:cd:2c:71:c8:82:ba:7e:8f:5f:dd:4e:ae:8b:0f:2e:fa:75:
         8d:5f:6f:2b:57:9e:44:37:d0:ca:e6:66:be:e9:10:d1:92:e3:
         9c:ab:bd:c3:94:79:ff:a3:68:e9:d9:02:ad:94:7a:1c:00:27:
         20:da:f7:0d:e2:53:a3:83:ae:e5:37:08:b1:f0:a6:22:51:5c:
         79:17:9f:a1:3f:34:c0:93:8b:da:17:36:c8:c4:2a:46:0e:99:
         32:6f:e2:ea:cb:98:2b:ad:56:b6:dc:d8:ae:93:df:6f:82:50:
         98:27:29:b6:d9:73:f7:8c:1c:a9:e6:f8:cd:a4:f5:59:5c:b8:
         69:8d:cb:ce:95:3c:1d:56:f1:f2:99:39:49:f6:5b:98:2b:cc:
         52:45:37:6d:c2:cf:35:dc:46:6d:35:73:66:1f:30:1b:3c:6c:
         d5:fc:68:f5:0e:5b:64:7d:4c:f1:92:84:c6:ec:54:de:02:ef:
         d7:39:26:af:90:bb:d3:55:f3:92:11:b8:1d:6b:44:ce:55:d8:
         8d:6c:99:e3
-----BEGIN CERTIFICATE-----
MIIDVjCCAj6gAwIBAgIRAPwf3oeA+w284AYU2gLK9oMwDQYJKoZIhvcNAQELBQAw
FjEUMBIGA1UEAwwLRWFzeS1SU0EgQ0EwHhcNMjIxMDEwMDIyMTMwWhcNMjUwMTEy
MDIyMTMwWjASMRAwDgYDVQQDDAdzdHVkZW50MIIBIjANBgkqhkiG9w0BAQEFAAOC
AQ8AMIIBCgKCAQEAvtOnFeZwnQzKo657B7i+oCQKuEYIKt6gXYjIADFy52euugLq
8E7GSMAzcUvVHtY0xoDcP46GELiSUQcdIqlq3YdIBI3Pw81i5BGtQX0e/ETSbhoQ
wHMNi/Pg3MOQZJ751efjK1INbTDjk3zUHHvL3vDiLMyTyzeRWB3a/v28G5SqB/gV
RRKZY5cQyCzdMahPRDEWsx5/W7t0kW/NeYVfzYXzRZC+5w2A7vj/0TgMYL5/AGuI
cv16dohFIq9gqmIjfCAiRG/8pkPDShIG8vn5iJp+7FOicI9426r5gtri86mdxL3A
PHJlK2IRPPhFxLTHAz4rP21apcBH/O1wsAadzwIDAQABo4GiMIGfMAkGA1UdEwQC
MAAwHQYDVR0OBBYEFE6T9YMj+izMCuJ8vE1S7t6taEWKMFEGA1UdIwRKMEiAFNgX
IGenzJeNxv/0VIK/Af2wVezOoRqkGDAWMRQwEgYDVQQDDAtFYXN5LVJTQSBDQYIU
a6RLjzgAi4nxMFECZ9q+wuPqvNEwEwYDVR0lBAwwCgYIKwYBBQUHAwIwCwYDVR0P
BAQDAgeAMA0GCSqGSIb3DQEBCwUAA4IBAQBeWJ5Sesvnl/yq0tF7Lsam/sEdwkvg
W9xvfiWmW4yW4FCublyVHyA9WWCW9XVuYME5mzCXfagFzSxxyIK6fo9f3U6uiw8u
+nWNX28rV55EN9DK5ma+6RDRkuOcq73DlHn/o2jp2QKtlHocACcg2vcN4lOjg67l
Nwix8KYiUVx5F5+hPzTAk4vaFzbIxCpGDpkyb+Lqy5grrVa23Niuk99vglCYJym2
2XP3jByp5vjNpPVZXLhpjcvOlTwdVvHymTlJ9luYK8xSRTdtws813EZtNXNmHzAb
PGzV/Gj1DltkfUzxkoTG7FTeAu/XOSavkLvTVfOSEbgda0TOVdiNbJnj
-----END CERTIFICATE-----
